; ModuleID = 'source-C-CXX/24/545.cpp'
source_filename = "source-C-CXX/24/545.cpp"
target datalayout = "e-m:e-p270:32:32-p271:32:32-p272:64:64-i64:64-f80:128-n8:16:32:64-S128"
target triple = "x86_64-pc-linux-gnu"

%"class.std::ios_base::Init" = type { i8 }
%"class.std::basic_istream" = type { i32 (...)**, i64, %"class.std::basic_ios" }
%"class.std::basic_ios" = type { %"class.std::ios_base", %"class.std::basic_ostream"*, i8, i8, %"class.std::basic_streambuf"*, %"class.std::ctype"*, %"class.std::num_put"*, %"class.std::num_get"* }
%"class.std::ios_base" = type { i32 (...)**, i64, i64, i32, i32, i32, %"struct.std::ios_base::_Callback_list"*, %"struct.std::ios_base::_Words", [8 x %"struct.std::ios_base::_Words"], i32, %"struct.std::ios_base::_Words"*, %"class.std::locale" }
%"struct.std::ios_base::_Callback_list" = type { %"struct.std::ios_base::_Callback_list"*, void (i32, %"class.std::ios_base"*, i32)*, i32, i32 }
%"struct.std::ios_base::_Words" = type { i8*, i64 }
%"class.std::locale" = type { %"class.std::locale::_Impl"* }
%"class.std::locale::_Impl" = type { i32, %"class.std::locale::facet"**, i64, %"class.std::locale::facet"**, i8** }
%"class.std::locale::facet" = type <{ i32 (...)**, i32, [4 x i8] }>
%"class.std::basic_ostream" = type { i32 (...)**, %"class.std::basic_ios" }
%"class.std::basic_streambuf" = type { i32 (...)**, i8*, i8*, i8*, i8*, i8*, i8*, %"class.std::locale" }
%"class.std::ctype" = type <{ %"class.std::locale::facet.base", [4 x i8], %struct.__locale_struct*, i8, [7 x i8], i32*, i32*, i16*, i8, [256 x i8], [256 x i8], i8, [6 x i8] }>
%"class.std::locale::facet.base" = type <{ i32 (...)**, i32 }>
%struct.__locale_struct = type { [13 x %struct.__locale_data*], i16*, i32*, i32*, [13 x i8*] }
%struct.__locale_data = type opaque
%"class.std::num_put" = type { %"class.std::locale::facet.base", [4 x i8] }
%"class.std::num_get" = type { %"class.std::locale::facet.base", [4 x i8] }

@_ZStL8__ioinit = internal global %"class.std::ios_base::Init" zeroinitializer, align 1
@__dso_handle = external hidden global i8
@_ZSt3cin = external global %"class.std::basic_istream", align 8
@_ZSt4cout = external global %"class.std::basic_ostream", align 8
@llvm.global_ctors = appending global [1 x { i32, void ()*, i8* }] [{ i32, void ()*, i8* } { i32 65535, void ()* @_GLOBAL__sub_I_545.cpp, i8* null }]

declare void @_ZNSt8ios_base4InitC1Ev(%"class.std::ios_base::Init"* nonnull align 1 dereferenceable(1)) unnamed_addr #0

; Function Attrs: nounwind
declare void @_ZNSt8ios_base4InitD1Ev(%"class.std::ios_base::Init"* nonnull align 1 dereferenceable(1)) unnamed_addr #1

; Function Attrs: nofree nounwind
declare i32 @__cxa_atexit(void (i8*)*, i8*, i8*) local_unnamed_addr #2

; Function Attrs: mustprogress norecurse sspstrong uwtable
define dso_local i32 @main() local_unnamed_addr #3 {
  %1 = alloca i32, align 4
  %2 = alloca [1000 x i32], align 16
  %3 = bitcast i32* %1 to i8*
  call void @llvm.lifetime.start.p0i8(i64 4, i8* nonnull %3) #7
  store i32 0, i32* %1, align 4, !tbaa !5
  %4 = bitcast [1000 x i32]* %2 to i8*
  call void @llvm.lifetime.start.p0i8(i64 4000, i8* nonnull %4) #7
  %5 = bitcast [1000 x i32]* %2 to i8*
  call void @llvm.memset.p0i8.i64(i8* noundef nonnull align 16 dereferenceable(4000) %5, i8 0, i64 4000, i1 false)
  %6 = call nonnull align 8 dereferenceable(16) %"class.std::basic_istream"* @_ZNSirsERi(%"class.std::basic_istream"* nonnull align 8 dereferenceable(16) @_ZSt3cin, i32* nonnull align 4 dereferenceable(4) %1)
  %7 = getelementptr inbounds [1000 x i32], [1000 x i32]* %2, i64 0, i64 1
  store i32 1, i32* %7, align 4, !tbaa !5
  %8 = load i32, i32* %1, align 4, !tbaa !5
  %9 = icmp slt i32 %8, 1
  br i1 %9, label %20, label %10

10:                                               ; preds = %0, %60
  %11 = phi i32 [ %68, %60 ], [ 1, %0 ]
  %12 = phi i32 [ %69, %60 ], [ 1, %0 ]
  %13 = icmp slt i32 %11, 1
  br i1 %13, label %60, label %14

14:                                               ; preds = %10
  %15 = zext i32 %11 to i64
  %16 = and i64 %15, 1
  %17 = icmp eq i32 %11, 1
  br i1 %17, label %46, label %18

18:                                               ; preds = %14
  %19 = and i64 %15, 4294967294
  br label %22

20:                                               ; preds = %60, %0
  %21 = phi i32 [ 1, %0 ], [ %68, %60 ]
  br label %71

22:                                               ; preds = %22, %18
  %23 = phi i64 [ 1, %18 ], [ %43, %22 ]
  %24 = phi i32 [ 0, %18 ], [ %42, %22 ]
  %25 = phi i64 [ %19, %18 ], [ %44, %22 ]
  %26 = getelementptr inbounds [1000 x i32], [1000 x i32]* %2, i64 0, i64 %23
  %27 = load i32, i32* %26, align 4, !tbaa !5
  %28 = shl nsw i32 %27, 1
  %29 = or i32 %28, %24
  %30 = icmp sgt i32 %29, 9
  %31 = add nsw i32 %29, -10
  %32 = select i1 %30, i32 %31, i32 %29
  %33 = zext i1 %30 to i32
  store i32 %32, i32* %26, align 4, !tbaa !5
  %34 = add nuw nsw i64 %23, 1
  %35 = getelementptr inbounds [1000 x i32], [1000 x i32]* %2, i64 0, i64 %34
  %36 = load i32, i32* %35, align 4, !tbaa !5
  %37 = shl nsw i32 %36, 1
  %38 = or i32 %37, %33
  %39 = icmp sgt i32 %38, 9
  %40 = add nsw i32 %38, -10
  %41 = select i1 %39, i32 %40, i32 %38
  %42 = zext i1 %39 to i32
  store i32 %41, i32* %35, align 4, !tbaa !5
  %43 = add nuw nsw i64 %23, 2
  %44 = add i64 %25, -2
  %45 = icmp eq i64 %44, 0
  br i1 %45, label %46, label %22, !llvm.loop !9

46:                                               ; preds = %22, %14
  %47 = phi i32 [ undef, %14 ], [ %42, %22 ]
  %48 = phi i64 [ 1, %14 ], [ %43, %22 ]
  %49 = phi i32 [ 0, %14 ], [ %42, %22 ]
  %50 = icmp eq i64 %16, 0
  br i1 %50, label %60, label %51

51:                                               ; preds = %46
  %52 = getelementptr inbounds [1000 x i32], [1000 x i32]* %2, i64 0, i64 %48
  %53 = load i32, i32* %52, align 4, !tbaa !5
  %54 = shl nsw i32 %53, 1
  %55 = or i32 %54, %49
  %56 = icmp sgt i32 %55, 9
  %57 = add nsw i32 %55, -10
  %58 = select i1 %56, i32 %57, i32 %55
  store i32 %58, i32* %52, align 4, !tbaa !5
  %59 = zext i1 %56 to i32
  br label %60

60:                                               ; preds = %51, %46, %10
  %61 = phi i32 [ 0, %10 ], [ %47, %46 ], [ %59, %51 ]
  %62 = add nsw i32 %11, 1
  %63 = sext i32 %62 to i64
  %64 = getelementptr inbounds [1000 x i32], [1000 x i32]* %2, i64 0, i64 %63
  %65 = load i32, i32* %64, align 4, !tbaa !5
  %66 = add nsw i32 %65, %61
  store i32 %66, i32* %64, align 4, !tbaa !5
  %67 = icmp eq i32 %66, 0
  %68 = select i1 %67, i32 %11, i32 %62
  %69 = add nuw i32 %12, 1
  %70 = icmp eq i32 %12, %8
  br i1 %70, label %20, label %10, !llvm.loop !11

71:                                               ; preds = %114, %20
  %72 = phi i32 [ 999, %20 ], [ %115, %114 ]
  %73 = zext i32 %72 to i64
  %74 = getelementptr inbounds [1000 x i32], [1000 x i32]* %2, i64 0, i64 %73
  %75 = load i32, i32* %74, align 4, !tbaa !5
  %76 = icmp eq i32 %75, 0
  br i1 %76, label %77, label %83

77:                                               ; preds = %71
  %78 = add nsw i32 %72, -1
  %79 = zext i32 %78 to i64
  %80 = getelementptr inbounds [1000 x i32], [1000 x i32]* %2, i64 0, i64 %79
  %81 = load i32, i32* %80, align 4, !tbaa !5
  %82 = icmp eq i32 %81, 0
  br i1 %82, label %96, label %83

83:                                               ; preds = %114, %108, %102, %96, %77, %71
  %84 = phi i32 [ %72, %71 ], [ %78, %77 ], [ %97, %96 ], [ %103, %102 ], [ %109, %108 ], [ %21, %114 ]
  %85 = icmp sgt i32 %84, 0
  br i1 %85, label %86, label %95

86:                                               ; preds = %83
  %87 = zext i32 %84 to i64
  br label %88

88:                                               ; preds = %86, %88
  %89 = phi i64 [ %87, %86 ], [ %94, %88 ]
  %90 = getelementptr inbounds [1000 x i32], [1000 x i32]* %2, i64 0, i64 %89
  %91 = load i32, i32* %90, align 4, !tbaa !5
  %92 = call nonnull align 8 dereferenceable(8) %"class.std::basic_ostream"* @_ZNSolsEi(%"class.std::basic_ostream"* nonnull align 8 dereferenceable(8) @_ZSt4cout, i32 %91)
  %93 = icmp sgt i64 %89, 1
  %94 = add nsw i64 %89, -1
  br i1 %93, label %88, label %95, !llvm.loop !12

95:                                               ; preds = %88, %83
  call void @llvm.lifetime.end.p0i8(i64 4000, i8* nonnull %4) #7
  call void @llvm.lifetime.end.p0i8(i64 4, i8* nonnull %3) #7
  ret i32 0

96:                                               ; preds = %77
  %97 = add nsw i32 %72, -2
  %98 = zext i32 %97 to i64
  %99 = getelementptr inbounds [1000 x i32], [1000 x i32]* %2, i64 0, i64 %98
  %100 = load i32, i32* %99, align 4, !tbaa !5
  %101 = icmp eq i32 %100, 0
  br i1 %101, label %102, label %83

102:                                              ; preds = %96
  %103 = add nsw i32 %72, -3
  %104 = zext i32 %103 to i64
  %105 = getelementptr inbounds [1000 x i32], [1000 x i32]* %2, i64 0, i64 %104
  %106 = load i32, i32* %105, align 4, !tbaa !5
  %107 = icmp eq i32 %106, 0
  br i1 %107, label %108, label %83

108:                                              ; preds = %102
  %109 = add nsw i32 %72, -4
  %110 = zext i32 %109 to i64
  %111 = getelementptr inbounds [1000 x i32], [1000 x i32]* %2, i64 0, i64 %110
  %112 = load i32, i32* %111, align 4, !tbaa !5
  %113 = icmp eq i32 %112, 0
  br i1 %113, label %114, label %83

114:                                              ; preds = %108
  %115 = add nsw i32 %72, -5
  %116 = icmp eq i32 %109, 0
  br i1 %116, label %83, label %71, !llvm.loop !13
}

; Function Attrs: argmemonly mustprogress nofree nosync nounwind willreturn
declare void @llvm.lifetime.start.p0i8(i64 immarg, i8* nocapture) #4

; Function Attrs: argmemonly mustprogress nofree nounwind willreturn writeonly
declare void @llvm.memset.p0i8.i64(i8* nocapture writeonly, i8, i64, i1 immarg) #5

declare nonnull align 8 dereferenceable(16) %"class.std::basic_istream"* @_ZNSirsERi(%"class.std::basic_istream"* nonnull align 8 dereferenceable(16), i32* nonnull align 4 dereferenceable(4)) local_unnamed_addr #0

declare nonnull align 8 dereferenceable(8) %"class.std::basic_ostream"* @_ZNSolsEi(%"class.std::basic_ostream"* nonnull align 8 dereferenceable(8), i32) local_unnamed_addr #0

; Function Attrs: argmemonly mustprogress nofree nosync nounwind willreturn
declare void @llvm.lifetime.end.p0i8(i64 immarg, i8* nocapture) #4

; Function Attrs: sspstrong uwtable
define internal void @_GLOBAL__sub_I_545.cpp() #6 section ".text.startup" {
  tail call void @_ZNSt8ios_base4InitC1Ev(%"class.std::ios_base::Init"* nonnull align 1 dereferenceable(1) @_ZStL8__ioinit)
  %1 = tail call i32 @__cxa_atexit(void (i8*)* bitcast (void (%"class.std::ios_base::Init"*)* @_ZNSt8ios_base4InitD1Ev to void (i8*)*), i8* getelementptr inbounds (%"class.std::ios_base::Init", %"class.std::ios_base::Init"* @_ZStL8__ioinit, i64 0, i32 0), i8* nonnull @__dso_handle) #7
  ret void
}


!llvm.module.flags = !{!0, !1, !2, !3}
!llvm.ident = !{!4}

!0 = !{i32 1, !"wchar_size", i32 4}
!1 = !{i32 7, !"PIC Level", i32 2}
!2 = !{i32 7, !"PIE Level", i32 2}
!3 = !{i32 7, !"uwtable", i32 1}
!4 = !{!"clang version 13.0.0"}
!5 = !{!6, !6, i64 0}
!6 = !{!"int", !7, i64 0}
!7 = !{!"omnipotent char", !8, i64 0}
!8 = !{!"Simple C++ TBAA"}
!9 = distinct !{!9, !10}
!10 = !{!"llvm.loop.mustprogress"}
!11 = distinct !{!11, !10}
!12 = distinct !{!12, !10}
!13 = distinct !{!13, !10}
